CCS PCM C Compiler, Version 5.015, 5967               29-nov.-23 13:19

               Filename:   C:\Users\strop\OneDrive\Documentos\GitHub\Microcontroladores\Control_rpm\Control_RPM.lst

               ROM used:   2140 words (26%)
                           Largest free fragment is 2048
               RAM used:   33 (9%) at main() level
                           66 (18%) worst case
               Stack used: 7 locations (6 in main + 1 for interrupts)
               Stack size: 8

*
0000:  MOVLW  08
0001:  MOVWF  0A
0002:  GOTO   000
0003:  NOP
0004:  MOVWF  7F
0005:  SWAPF  03,W
0006:  CLRF   03
0007:  MOVWF  21
0008:  MOVF   0A,W
0009:  MOVWF  20
000A:  CLRF   0A
000B:  MOVF   04,W
000C:  MOVWF  22
000D:  MOVF   77,W
000E:  MOVWF  23
000F:  MOVF   78,W
0010:  MOVWF  24
0011:  MOVF   79,W
0012:  MOVWF  25
0013:  MOVF   7A,W
0014:  MOVWF  26
0015:  BSF    03.6
0016:  MOVF   0D,W
0017:  BCF    03.6
0018:  MOVWF  27
0019:  BSF    03.6
001A:  MOVF   0F,W
001B:  BCF    03.6
001C:  MOVWF  28
001D:  BSF    03.6
001E:  MOVF   0C,W
001F:  BCF    03.6
0020:  MOVWF  29
0021:  BSF    03.6
0022:  MOVF   0E,W
0023:  BCF    03.6
0024:  MOVWF  2A
0025:  BCF    03.7
0026:  BCF    03.5
0027:  BTFSS  0B.4
0028:  GOTO   02B
0029:  BTFSC  0B.1
002A:  GOTO   052
002B:  MOVLW  8C
002C:  MOVWF  04
002D:  BTFSS  00.0
002E:  GOTO   031
002F:  BTFSC  0C.0
0030:  GOTO   055
0031:  MOVF   22,W
0032:  MOVWF  04
0033:  MOVF   23,W
0034:  MOVWF  77
0035:  MOVF   24,W
0036:  MOVWF  78
0037:  MOVF   25,W
0038:  MOVWF  79
0039:  MOVF   26,W
003A:  MOVWF  7A
003B:  MOVF   27,W
003C:  BSF    03.6
003D:  MOVWF  0D
003E:  BCF    03.6
003F:  MOVF   28,W
0040:  BSF    03.6
0041:  MOVWF  0F
0042:  BCF    03.6
0043:  MOVF   29,W
0044:  BSF    03.6
0045:  MOVWF  0C
0046:  BCF    03.6
0047:  MOVF   2A,W
0048:  BSF    03.6
0049:  MOVWF  0E
004A:  BCF    03.6
004B:  MOVF   20,W
004C:  MOVWF  0A
004D:  SWAPF  21,W
004E:  MOVWF  03
004F:  SWAPF  7F,F
0050:  SWAPF  7F,W
0051:  RETFIE
0052:  BCF    0A.3
0053:  BCF    0A.4
0054:  GOTO   0A1
0055:  BCF    0A.3
0056:  BCF    0A.4
0057:  GOTO   06F
.................... #include <16F877a.h> 
.................... //////////// Standard Header file for the PIC16F877A device //////////////// 
.................... /////////////////////////////////////////////////////////////////////////// 
.................... ////        (C) Copyright 1996, 2013 Custom Computer Services          //// 
.................... //// This source code may only be used by licensed users of the CCS C  //// 
.................... //// compiler.  This source code may only be distributed to other      //// 
.................... //// licensed users of the CCS C compiler.  No other use, reproduction //// 
.................... //// or distribution is permitted without written permission.          //// 
.................... //// Derivative programs created using this software in object code    //// 
.................... //// form are not restricted in any way.                               //// 
.................... /////////////////////////////////////////////////////////////////////////// 
.................... #device PIC16F877A 
0058:  BCF    0A.0
0059:  BCF    0A.1
005A:  BCF    0A.2
005B:  ADDWF  02,F
005C:  RETLW  37
005D:  RETLW  38
005E:  RETLW  39
005F:  RETLW  2F
0060:  RETLW  34
0061:  RETLW  35
0062:  RETLW  36
0063:  RETLW  2A
0064:  RETLW  31
0065:  RETLW  32
0066:  RETLW  33
0067:  RETLW  2D
0068:  RETLW  43
0069:  RETLW  30
006A:  RETLW  3D
006B:  RETLW  2B
006C:  DATA 20,10
006D:  DATA 20,10
006E:  DATA 20,00
*
00A8:  DATA 0C,2B
00A9:  DATA 65,36
00AA:  DATA EF,31
00AB:  DATA 69,32
00AC:  DATA 61,32
00AD:  DATA 3A,00
00AE:  DATA 0C,29
00AF:  DATA D0,26
00B0:  DATA A0,27
00B1:  DATA 42,25
00B2:  DATA A0,22
00B3:  DATA 52,29
00B4:  DATA 20,05
00B5:  DATA 25,1A
00B6:  DATA EC,3A
00B7:  DATA A0,12
00B8:  DATA 34,36
00B9:  DATA 75,10
00BA:  DATA 25,1A
00BB:  DATA EC,3A
00BC:  DATA 00,00
00BD:  DATA 8C,29
00BE:  DATA 6F,36
00BF:  DATA 6F,10
00C0:  DATA 6C,36
00C1:  DATA E5,33
00C2:  DATA 6F,10
00C3:  DATA 61,05
00C4:  DATA 36,1B
00C5:  DATA 30,18
00C6:  DATA 20,39
00C7:  DATA F0,36
00C8:  DATA 20,1D
00C9:  DATA 28,00
*
023C:  MOVF   0B,W
023D:  MOVWF  46
023E:  BCF    0B.7
023F:  BSF    03.5
0240:  BSF    03.6
0241:  BSF    0C.7
0242:  BSF    0C.0
0243:  NOP
0244:  NOP
0245:  BCF    03.5
0246:  BCF    03.6
0247:  BTFSC  46.7
0248:  BSF    0B.7
0249:  BSF    03.6
024A:  MOVF   0C,W
024B:  ANDLW  7F
024C:  BTFSC  03.2
024D:  GOTO   290
024E:  BCF    03.6
024F:  MOVWF  46
0250:  BSF    03.6
0251:  MOVF   0D,W
0252:  BCF    03.6
0253:  MOVWF  47
0254:  BSF    03.6
0255:  MOVF   0F,W
0256:  BCF    03.6
0257:  MOVWF  48
0258:  MOVF   46,W
0259:  MOVWF  49
025A:  CALL   210
025B:  MOVF   47,W
025C:  BSF    03.6
025D:  MOVWF  0D
025E:  BCF    03.6
025F:  MOVF   48,W
0260:  BSF    03.6
0261:  MOVWF  0F
0262:  BCF    03.6
0263:  MOVF   0B,W
0264:  MOVWF  49
0265:  BCF    0B.7
0266:  BSF    03.5
0267:  BSF    03.6
0268:  BSF    0C.7
0269:  BSF    0C.0
026A:  NOP
026B:  NOP
026C:  BCF    03.5
026D:  BCF    03.6
026E:  BTFSC  49.7
026F:  BSF    0B.7
0270:  BSF    03.6
0271:  RLF    0C,W
0272:  RLF    0E,W
0273:  ANDLW  7F
0274:  BTFSC  03.2
0275:  GOTO   290
0276:  BCF    03.6
0277:  MOVWF  46
0278:  BSF    03.6
0279:  MOVF   0D,W
027A:  BCF    03.6
027B:  MOVWF  47
027C:  BSF    03.6
027D:  MOVF   0F,W
027E:  BCF    03.6
027F:  MOVWF  48
0280:  MOVF   46,W
0281:  MOVWF  49
0282:  CALL   210
0283:  MOVF   47,W
0284:  BSF    03.6
0285:  MOVWF  0D
0286:  BCF    03.6
0287:  MOVF   48,W
0288:  BSF    03.6
0289:  MOVWF  0F
028A:  INCF   0D,F
028B:  BTFSC  03.2
028C:  INCF   0F,F
028D:  BCF    03.6
028E:  GOTO   23C
028F:  BSF    03.6
0290:  BCF    03.6
0291:  RETURN
*
0328:  BSF    0A.0
0329:  BSF    0A.1
032A:  BCF    0A.2
032B:  ADDWF  02,F
032C:  GOTO   298
032D:  GOTO   2B1
032E:  GOTO   2CA
032F:  GOTO   2E3
0330:  MOVLW  20
0331:  MOVWF  5B
0332:  CLRF   57
0333:  CLRF   58
0334:  CLRF   59
0335:  CLRF   5A
0336:  MOVF   52,W
0337:  MOVWF  7A
0338:  MOVF   51,W
0339:  MOVWF  79
033A:  MOVF   50,W
033B:  MOVWF  78
033C:  MOVF   4F,W
033D:  MOVWF  77
033E:  BCF    03.0
033F:  BTFSS  77.0
0340:  GOTO   34F
0341:  MOVF   53,W
0342:  ADDWF  57,F
0343:  MOVF   54,W
0344:  BTFSC  03.0
0345:  INCFSZ 54,W
0346:  ADDWF  58,F
0347:  MOVF   55,W
0348:  BTFSC  03.0
0349:  INCFSZ 55,W
034A:  ADDWF  59,F
034B:  MOVF   56,W
034C:  BTFSC  03.0
034D:  INCFSZ 56,W
034E:  ADDWF  5A,F
034F:  RRF    5A,F
0350:  RRF    59,F
0351:  RRF    58,F
0352:  RRF    57,F
0353:  RRF    7A,F
0354:  RRF    79,F
0355:  RRF    78,F
0356:  RRF    77,F
0357:  DECFSZ 5B,F
0358:  GOTO   33E
0359:  RETURN
*
046B:  MOVLW  8E
046C:  MOVWF  77
046D:  MOVF   3B,W
046E:  MOVWF  78
046F:  MOVF   3A,W
0470:  MOVWF  79
0471:  CLRF   7A
0472:  MOVF   78,F
0473:  BTFSS  03.2
0474:  GOTO   47F
0475:  MOVF   79,W
0476:  MOVWF  78
0477:  CLRF   79
0478:  MOVLW  08
0479:  SUBWF  77,F
047A:  MOVF   78,F
047B:  BTFSS  03.2
047C:  GOTO   47F
047D:  CLRF   77
047E:  GOTO   487
047F:  BCF    03.0
0480:  BTFSC  78.7
0481:  GOTO   486
0482:  RLF    79,F
0483:  RLF    78,F
0484:  DECF   77,F
0485:  GOTO   47F
0486:  BCF    78.7
0487:  RETURN
0488:  MOVF   3E,W
0489:  BTFSC  03.2
048A:  GOTO   4F8
048B:  MOVWF  46
048C:  MOVF   42,W
048D:  BTFSC  03.2
048E:  GOTO   4F8
048F:  ADDWF  46,F
0490:  BTFSC  03.0
0491:  GOTO   499
0492:  MOVLW  7F
0493:  SUBWF  46,F
0494:  BTFSS  03.0
0495:  GOTO   4F8
0496:  BTFSC  03.2
0497:  GOTO   4F8
0498:  GOTO   49D
0499:  MOVLW  81
049A:  ADDWF  46,F
049B:  BTFSC  03.0
049C:  GOTO   4F8
049D:  MOVF   46,W
049E:  MOVWF  77
049F:  CLRF   78
04A0:  CLRF   79
04A1:  CLRF   7A
04A2:  MOVF   3F,W
04A3:  MOVWF  4A
04A4:  BSF    4A.7
04A5:  MOVF   40,W
04A6:  MOVWF  49
04A7:  MOVF   41,W
04A8:  MOVWF  48
04A9:  MOVLW  18
04AA:  MOVWF  46
04AB:  CLRF   47
04AC:  BTFSS  48.0
04AD:  GOTO   4C6
04AE:  MOVF   45,W
04AF:  ADDWF  7A,F
04B0:  BTFSS  03.0
04B1:  GOTO   4B8
04B2:  INCF   79,F
04B3:  BTFSS  03.2
04B4:  GOTO   4B8
04B5:  INCF   78,F
04B6:  BTFSC  03.2
04B7:  BSF    47.7
04B8:  MOVF   44,W
04B9:  ADDWF  79,F
04BA:  BTFSS  03.0
04BB:  GOTO   4BF
04BC:  INCF   78,F
04BD:  BTFSC  03.2
04BE:  BSF    47.7
04BF:  MOVF   43,W
04C0:  MOVWF  40
04C1:  BSF    40.7
04C2:  MOVF   40,W
04C3:  ADDWF  78,F
04C4:  BTFSC  03.0
04C5:  BSF    47.7
04C6:  RLF    47,F
04C7:  RRF    78,F
04C8:  RRF    79,F
04C9:  RRF    7A,F
04CA:  RRF    4A,F
04CB:  RRF    49,F
04CC:  RRF    48,F
04CD:  BCF    03.0
04CE:  DECFSZ 46,F
04CF:  GOTO   4AB
04D0:  MOVLW  01
04D1:  ADDWF  77,F
04D2:  BTFSC  03.0
04D3:  GOTO   4F8
04D4:  BTFSC  78.7
04D5:  GOTO   4DD
04D6:  RLF    4A,F
04D7:  RLF    7A,F
04D8:  RLF    79,F
04D9:  RLF    78,F
04DA:  DECF   77,F
04DB:  BTFSC  03.2
04DC:  GOTO   4F8
04DD:  BTFSS  4A.7
04DE:  GOTO   4EE
04DF:  INCF   7A,F
04E0:  BTFSS  03.2
04E1:  GOTO   4EE
04E2:  INCF   79,F
04E3:  BTFSS  03.2
04E4:  GOTO   4EE
04E5:  INCF   78,F
04E6:  BTFSS  03.2
04E7:  GOTO   4EE
04E8:  RRF    78,F
04E9:  RRF    79,F
04EA:  RRF    7A,F
04EB:  INCF   77,F
04EC:  BTFSC  03.2
04ED:  GOTO   4F8
04EE:  MOVF   3F,W
04EF:  MOVWF  47
04F0:  MOVF   43,W
04F1:  XORWF  47,F
04F2:  BTFSS  47.7
04F3:  GOTO   4F6
04F4:  BSF    78.7
04F5:  GOTO   4FC
04F6:  BCF    78.7
04F7:  GOTO   4FC
04F8:  CLRF   77
04F9:  CLRF   78
04FA:  CLRF   79
04FB:  CLRF   7A
04FC:  RETURN
04FD:  MOVF   3E,W
04FE:  BTFSC  03.2
04FF:  GOTO   5C2
0500:  MOVWF  4A
0501:  MOVF   42,W
0502:  BTFSC  03.2
0503:  GOTO   5C2
0504:  SUBWF  4A,F
0505:  BTFSS  03.0
0506:  GOTO   50C
0507:  MOVLW  7F
0508:  ADDWF  4A,F
0509:  BTFSC  03.0
050A:  GOTO   5C2
050B:  GOTO   512
050C:  MOVLW  81
050D:  SUBWF  4A,F
050E:  BTFSS  03.0
050F:  GOTO   5C2
0510:  BTFSC  03.2
0511:  GOTO   5C2
0512:  MOVF   4A,W
0513:  MOVWF  77
0514:  CLRF   78
0515:  CLRF   79
0516:  CLRF   7A
0517:  CLRF   49
0518:  MOVF   3F,W
0519:  MOVWF  48
051A:  BSF    48.7
051B:  MOVF   40,W
051C:  MOVWF  47
051D:  MOVF   41,W
051E:  MOVWF  46
051F:  MOVLW  19
0520:  MOVWF  4A
0521:  MOVF   45,W
0522:  SUBWF  46,F
0523:  BTFSC  03.0
0524:  GOTO   535
0525:  MOVLW  01
0526:  SUBWF  47,F
0527:  BTFSC  03.0
0528:  GOTO   535
0529:  SUBWF  48,F
052A:  BTFSC  03.0
052B:  GOTO   535
052C:  SUBWF  49,F
052D:  BTFSC  03.0
052E:  GOTO   535
052F:  INCF   49,F
0530:  INCF   48,F
0531:  INCF   47,F
0532:  MOVF   45,W
0533:  ADDWF  46,F
0534:  GOTO   567
0535:  MOVF   44,W
0536:  SUBWF  47,F
0537:  BTFSC  03.0
0538:  GOTO   550
0539:  MOVLW  01
053A:  SUBWF  48,F
053B:  BTFSC  03.0
053C:  GOTO   550
053D:  SUBWF  49,F
053E:  BTFSC  03.0
053F:  GOTO   550
0540:  INCF   49,F
0541:  INCF   48,F
0542:  MOVF   44,W
0543:  ADDWF  47,F
0544:  MOVF   45,W
0545:  ADDWF  46,F
0546:  BTFSS  03.0
0547:  GOTO   567
0548:  INCF   47,F
0549:  BTFSS  03.2
054A:  GOTO   567
054B:  INCF   48,F
054C:  BTFSS  03.2
054D:  GOTO   567
054E:  INCF   49,F
054F:  GOTO   567
0550:  MOVF   43,W
0551:  IORLW  80
0552:  SUBWF  48,F
0553:  BTFSC  03.0
0554:  GOTO   566
0555:  MOVLW  01
0556:  SUBWF  49,F
0557:  BTFSC  03.0
0558:  GOTO   566
0559:  INCF   49,F
055A:  MOVF   43,W
055B:  IORLW  80
055C:  ADDWF  48,F
055D:  MOVF   44,W
055E:  ADDWF  47,F
055F:  BTFSS  03.0
0560:  GOTO   544
0561:  INCF   48,F
0562:  BTFSS  03.2
0563:  GOTO   544
0564:  INCF   49,F
0565:  GOTO   544
0566:  BSF    7A.0
0567:  DECFSZ 4A,F
0568:  GOTO   56A
0569:  GOTO   575
056A:  BCF    03.0
056B:  RLF    46,F
056C:  RLF    47,F
056D:  RLF    48,F
056E:  RLF    49,F
056F:  BCF    03.0
0570:  RLF    7A,F
0571:  RLF    79,F
0572:  RLF    78,F
0573:  RLF    4B,F
0574:  GOTO   521
0575:  BTFSS  4B.0
0576:  GOTO   57D
0577:  BCF    03.0
0578:  RRF    78,F
0579:  RRF    79,F
057A:  RRF    7A,F
057B:  RRF    4B,F
057C:  GOTO   580
057D:  DECF   77,F
057E:  BTFSC  03.2
057F:  GOTO   5C2
0580:  BTFSC  4B.7
0581:  GOTO   5A9
0582:  BCF    03.0
0583:  RLF    46,F
0584:  RLF    47,F
0585:  RLF    48,F
0586:  RLF    49,F
0587:  MOVF   45,W
0588:  SUBWF  46,F
0589:  BTFSC  03.0
058A:  GOTO   595
058B:  MOVLW  01
058C:  SUBWF  47,F
058D:  BTFSC  03.0
058E:  GOTO   595
058F:  SUBWF  48,F
0590:  BTFSC  03.0
0591:  GOTO   595
0592:  SUBWF  49,F
0593:  BTFSS  03.0
0594:  GOTO   5B8
0595:  MOVF   44,W
0596:  SUBWF  47,F
0597:  BTFSC  03.0
0598:  GOTO   5A0
0599:  MOVLW  01
059A:  SUBWF  48,F
059B:  BTFSC  03.0
059C:  GOTO   5A0
059D:  SUBWF  49,F
059E:  BTFSS  03.0
059F:  GOTO   5B8
05A0:  MOVF   43,W
05A1:  IORLW  80
05A2:  SUBWF  48,F
05A3:  BTFSC  03.0
05A4:  GOTO   5A9
05A5:  MOVLW  01
05A6:  SUBWF  49,F
05A7:  BTFSS  03.0
05A8:  GOTO   5B8
05A9:  INCF   7A,F
05AA:  BTFSS  03.2
05AB:  GOTO   5B8
05AC:  INCF   79,F
05AD:  BTFSS  03.2
05AE:  GOTO   5B8
05AF:  INCF   78,F
05B0:  BTFSS  03.2
05B1:  GOTO   5B8
05B2:  INCF   77,F
05B3:  BTFSC  03.2
05B4:  GOTO   5C2
05B5:  RRF    78,F
05B6:  RRF    79,F
05B7:  RRF    7A,F
05B8:  MOVF   3F,W
05B9:  MOVWF  4A
05BA:  MOVF   43,W
05BB:  XORWF  4A,F
05BC:  BTFSS  4A.7
05BD:  GOTO   5C0
05BE:  BSF    78.7
05BF:  GOTO   5C6
05C0:  BCF    78.7
05C1:  GOTO   5C6
05C2:  CLRF   77
05C3:  CLRF   78
05C4:  CLRF   79
05C5:  CLRF   7A
05C6:  RETURN
05C7:  MOVLW  8E
05C8:  MOVWF  77
05C9:  MOVF   3A,W
05CA:  SUBWF  77,F
05CB:  MOVF   3B,W
05CC:  MOVWF  79
05CD:  MOVF   3C,W
05CE:  MOVWF  78
05CF:  BSF    79.7
05D0:  MOVF   77,F
05D1:  BTFSC  03.2
05D2:  GOTO   5DE
05D3:  BCF    03.0
05D4:  MOVF   79,F
05D5:  BTFSS  03.2
05D6:  GOTO   5DA
05D7:  MOVF   78,F
05D8:  BTFSC  03.2
05D9:  GOTO   5DE
05DA:  RRF    79,F
05DB:  RRF    78,F
05DC:  DECFSZ 77,F
05DD:  GOTO   5D3
05DE:  BTFSS  3B.7
05DF:  GOTO   5E5
05E0:  COMF   78,F
05E1:  COMF   79,F
05E2:  INCF   78,F
05E3:  BTFSC  03.2
05E4:  INCF   79,F
05E5:  RETURN
05E6:  MOVLW  10
05E7:  MOVWF  3E
05E8:  CLRF   77
05E9:  CLRF   7A
05EA:  RRF    3B,F
05EB:  RRF    3A,F
05EC:  BTFSS  03.0
05ED:  GOTO   5F4
05EE:  MOVF   3C,W
05EF:  ADDWF  77,F
05F0:  BTFSC  03.0
05F1:  INCF   7A,F
05F2:  MOVF   3D,W
05F3:  ADDWF  7A,F
05F4:  RRF    7A,F
05F5:  RRF    77,F
05F6:  RRF    79,F
05F7:  RRF    78,F
05F8:  DECFSZ 3E,F
05F9:  GOTO   5EA
05FA:  BSF    0A.3
05FB:  BCF    0A.4
05FC:  GOTO   0F3 (RETURN)
05FD:  CLRF   78
05FE:  CLRF   79
05FF:  CLRF   77
0600:  CLRF   7A
0601:  MOVF   3F,W
0602:  BTFSS  03.2
0603:  GOTO   607
0604:  MOVF   3E,W
0605:  BTFSC  03.2
0606:  GOTO   621
0607:  MOVLW  10
0608:  MOVWF  40
0609:  BCF    03.0
060A:  RLF    3C,F
060B:  RLF    3D,F
060C:  RLF    77,F
060D:  RLF    7A,F
060E:  MOVF   3F,W
060F:  SUBWF  7A,W
0610:  BTFSS  03.2
0611:  GOTO   614
0612:  MOVF   3E,W
0613:  SUBWF  77,W
0614:  BTFSS  03.0
0615:  GOTO   61D
0616:  MOVF   3E,W
0617:  SUBWF  77,F
0618:  BTFSS  03.0
0619:  DECF   7A,F
061A:  MOVF   3F,W
061B:  SUBWF  7A,F
061C:  BSF    03.0
061D:  RLF    78,F
061E:  RLF    79,F
061F:  DECFSZ 40,F
0620:  GOTO   609
0621:  BSF    0A.3
0622:  BCF    0A.4
0623:  GOTO   101 (RETURN)
0624:  MOVF   0B,W
0625:  MOVWF  3B
0626:  BCF    0B.7
0627:  BSF    03.5
0628:  BSF    03.6
0629:  BSF    0C.7
062A:  BSF    0C.0
062B:  NOP
062C:  NOP
062D:  BCF    03.5
062E:  BCF    03.6
062F:  BTFSC  3B.7
0630:  BSF    0B.7
0631:  BTFSC  03.0
0632:  GOTO   65B
0633:  BSF    03.6
0634:  MOVF   0C,W
0635:  ANDLW  7F
0636:  BCF    03.6
0637:  MOVWF  3B
0638:  BSF    03.6
0639:  MOVF   0D,W
063A:  BCF    03.6
063B:  MOVWF  3C
063C:  BSF    03.6
063D:  MOVF   0F,W
063E:  BCF    03.6
063F:  MOVWF  3D
0640:  MOVF   3B,W
0641:  MOVWF  49
0642:  CALL   210
0643:  MOVF   3C,W
0644:  BSF    03.6
0645:  MOVWF  0D
0646:  BCF    03.6
0647:  MOVF   3D,W
0648:  BSF    03.6
0649:  MOVWF  0F
064A:  BCF    03.6
064B:  MOVF   0B,W
064C:  MOVWF  3E
064D:  BCF    0B.7
064E:  BSF    03.5
064F:  BSF    03.6
0650:  BSF    0C.7
0651:  BSF    0C.0
0652:  NOP
0653:  NOP
0654:  BCF    03.5
0655:  BCF    03.6
0656:  BTFSC  3E.7
0657:  BSF    0B.7
0658:  DECFSZ 3A,F
0659:  GOTO   65B
065A:  GOTO   67A
065B:  BSF    03.6
065C:  RLF    0C,W
065D:  RLF    0E,W
065E:  ANDLW  7F
065F:  BCF    03.6
0660:  MOVWF  3B
0661:  BSF    03.6
0662:  MOVF   0D,W
0663:  BCF    03.6
0664:  MOVWF  3C
0665:  BSF    03.6
0666:  MOVF   0F,W
0667:  BCF    03.6
0668:  MOVWF  3D
0669:  MOVF   3B,W
066A:  MOVWF  49
066B:  CALL   210
066C:  MOVF   3C,W
066D:  BSF    03.6
066E:  MOVWF  0D
066F:  BCF    03.6
0670:  MOVF   3D,W
0671:  BSF    03.6
0672:  MOVWF  0F
0673:  INCF   0D,F
0674:  BTFSC  03.2
0675:  INCF   0F,F
0676:  BCF    03.0
0677:  BCF    03.6
0678:  DECFSZ 3A,F
0679:  GOTO   624
067A:  BSF    0A.3
067B:  BCF    0A.4
067C:  GOTO   117 (RETURN)
067D:  CLRF   42
067E:  MOVF   04,W
067F:  MOVWF  41
0680:  BCF    42.0
0681:  BTFSC  03.7
0682:  BSF    42.0
0683:  SWAPF  3B,W
0684:  IORLW  F0
0685:  MOVWF  3D
0686:  ADDWF  3D,F
0687:  ADDLW  E2
0688:  MOVWF  3E
0689:  ADDLW  32
068A:  MOVWF  40
068B:  MOVF   3B,W
068C:  ANDLW  0F
068D:  ADDWF  3E,F
068E:  ADDWF  3E,F
068F:  ADDWF  40,F
0690:  ADDLW  E9
0691:  MOVWF  3F
0692:  ADDWF  3F,F
0693:  ADDWF  3F,F
0694:  SWAPF  3A,W
0695:  ANDLW  0F
0696:  ADDWF  3F,F
0697:  ADDWF  40,F
0698:  RLF    3F,F
0699:  RLF    40,F
069A:  COMF   40,F
069B:  RLF    40,F
069C:  MOVF   3A,W
069D:  ANDLW  0F
069E:  ADDWF  40,F
069F:  RLF    3D,F
06A0:  MOVLW  07
06A1:  MOVWF  3C
06A2:  MOVLW  0A
06A3:  ADDWF  40,F
06A4:  DECF   3F,F
06A5:  BTFSS  03.0
06A6:  GOTO   6A3
06A7:  ADDWF  3F,F
06A8:  DECF   3E,F
06A9:  BTFSS  03.0
06AA:  GOTO   6A7
06AB:  ADDWF  3E,F
06AC:  DECF   3D,F
06AD:  BTFSS  03.0
06AE:  GOTO   6AB
06AF:  ADDWF  3D,F
06B0:  DECF   3C,F
06B1:  BTFSS  03.0
06B2:  GOTO   6AF
06B3:  MOVLW  3C
06B4:  MOVWF  04
06B5:  BCF    03.7
06B6:  MOVLW  07
06B7:  ANDWF  41,W
06B8:  BCF    41.6
06B9:  ADDWF  04,F
06BA:  MOVLW  40
06BB:  SUBWF  04,W
06BC:  BTFSC  03.2
06BD:  BSF    41.6
06BE:  MOVF   00,W
06BF:  MOVWF  77
06C0:  BTFSS  03.2
06C1:  GOTO   6CA
06C2:  BTFSC  41.6
06C3:  GOTO   6CA
06C4:  BTFSC  41.4
06C5:  GOTO   6DC
06C6:  BTFSC  41.3
06C7:  GOTO   6CA
06C8:  MOVLW  20
06C9:  GOTO   6CD
06CA:  BSF    41.3
06CB:  BCF    41.4
06CC:  MOVLW  30
06CD:  ADDWF  77,F
06CE:  CLRF   3B
06CF:  MOVF   04,W
06D0:  MOVWF  3A
06D1:  BCF    3B.0
06D2:  BTFSC  03.7
06D3:  BSF    3B.0
06D4:  MOVF   77,W
06D5:  MOVWF  49
06D6:  CALL   210
06D7:  MOVF   3A,W
06D8:  MOVWF  04
06D9:  BCF    03.7
06DA:  BTFSC  3B.0
06DB:  BSF    03.7
06DC:  INCF   04,F
06DD:  BTFSS  41.6
06DE:  GOTO   6BA
06DF:  RETURN
....................  
.................... #list 
....................  
.................... #device ADC = 10 
.................... #use delay(crystal = 20000000) 
*
00CA:  MOVLW  4A
00CB:  MOVWF  04
00CC:  BCF    03.7
00CD:  MOVF   00,W
00CE:  BTFSC  03.2
00CF:  GOTO   0DD
00D0:  MOVLW  06
00D1:  MOVWF  78
00D2:  CLRF   77
00D3:  DECFSZ 77,F
00D4:  GOTO   0D3
00D5:  DECFSZ 78,F
00D6:  GOTO   0D2
00D7:  MOVLW  7B
00D8:  MOVWF  77
00D9:  DECFSZ 77,F
00DA:  GOTO   0D9
00DB:  DECFSZ 00,F
00DC:  GOTO   0D0
00DD:  RETURN
.................... #FUSES NOWDT, NOBROWNOUT, NOLVP, HS 
.................... #define LCD_ENABLE_PIN  PIN_A3                                    //// 
.................... #define LCD_RS_PIN      PIN_A5                                    //// 
.................... #define LCD_RW_PIN      PIN_A4                                    //// 
.................... #define LCD_DATA4       PIN_D4                                    //// 
.................... #define LCD_DATA5       PIN_D5                                    //// 
.................... #define LCD_DATA6       PIN_D6                                    //// 
.................... #define LCD_DATA7       PIN_D7  
.................... #include <lcd.c> 
.................... /////////////////////////////////////////////////////////////////////////////// 
.................... ////                             LCD.C                                     //// 
.................... ////                 Driver for common LCD modules                         //// 
.................... ////                                                                       //// 
.................... ////  lcd_init()   Must be called before any other function.               //// 
.................... ////                                                                       //// 
.................... ////  lcd_putc(c)  Will display c on the next position of the LCD.         //// 
.................... ////                 \a  Set cursor position to upper left                 //// 
.................... ////                 \f  Clear display, set cursor to upper left           //// 
.................... ////                 \n  Go to start of second line                        //// 
.................... ////                 \b  Move back one position                            //// 
.................... ////              If LCD_EXTENDED_NEWLINE is defined, the \n character     //// 
.................... ////              will erase all remanining characters on the current      //// 
.................... ////              line, and move the cursor to the beginning of the next   //// 
.................... ////              line.                                                    //// 
.................... ////              If LCD_EXTENDED_NEWLINE is defined, the \r character     //// 
.................... ////              will move the cursor to the start of the current         //// 
.................... ////              line.                                                    //// 
.................... ////                                                                       //// 
.................... ////  lcd_gotoxy(x,y) Set write position on LCD (upper left is 1,1)        //// 
.................... ////                                                                       //// 
.................... ////  lcd_getc(x,y)   Returns character at position x,y on LCD             //// 
.................... ////                                                                       //// 
.................... ////  lcd_cursor_on(int1 on)   Turn the cursor on (on=TRUE) or off         //// 
.................... ////              (on=FALSE).                                              //// 
.................... ////                                                                       //// 
.................... ////  lcd_set_cgram_char(w, *p)   Write a custom character to the CGRAM.   //// 
.................... ////                                                                       //// 
.................... ////                                                                       //// 
.................... ////  CONFIGURATION                                                        //// 
.................... ////  The LCD can be configured in one of two ways: a.) port access or     //// 
.................... ////  b.) pin access.  Port access requires the entire 7 bit interface     //// 
.................... ////  connected to one GPIO port, and the data bits (D4:D7 of the LCD)     //// 
.................... ////  connected to sequential pins on the GPIO.  Pin access                //// 
.................... ////  has no requirements, all 7 bits of the control interface can         //// 
.................... ////  can be connected to any GPIO using several ports.                    //// 
.................... ////                                                                       //// 
.................... ////  To use port access, #define LCD_DATA_PORT to the SFR location of     //// 
.................... ////  of the GPIO port that holds the interface, -AND- edit LCD_PIN_MAP    //// 
.................... ////  of this file to configure the pin order.  If you are using a         //// 
.................... ////  baseline PIC (PCB), then LCD_OUTPUT_MAP and LCD_INPUT_MAP also must  //// 
.................... ////  be defined.                                                          //// 
.................... ////                                                                       //// 
.................... ////  Example of port access:                                              //// 
.................... ////     #define LCD_DATA_PORT getenv("SFR:PORTD")                         //// 
.................... ////                                                                       //// 
.................... ////  To use pin access, the following pins must be defined:               //// 
.................... ////     LCD_ENABLE_PIN                                                    //// 
.................... ////     LCD_RS_PIN                                                        //// 
.................... ////     LCD_RW_PIN                                                        //// 
.................... ////     LCD_DATA4                                                         //// 
.................... ////     LCD_DATA5                                                         //// 
.................... ////     LCD_DATA6                                                         //// 
.................... ////     LCD_DATA7                                                         //// 
.................... ////                                                                       //// 
.................... ////  Example of pin access:                                               //// 
.................... ////     #define LCD_ENABLE_PIN  PIN_E0                                    //// 
.................... ////     #define LCD_RS_PIN      PIN_E1                                    //// 
.................... ////     #define LCD_RW_PIN      PIN_E2                                    //// 
.................... ////     #define LCD_DATA4       PIN_D4                                    //// 
.................... ////     #define LCD_DATA5       PIN_D5                                    //// 
.................... ////     #define LCD_DATA6       PIN_D6                                    //// 
.................... ////     #define LCD_DATA7       PIN_D7                                    //// 
.................... ////                                                                       //// 
.................... /////////////////////////////////////////////////////////////////////////////// 
.................... ////        (C) Copyright 1996,2010 Custom Computer Services           //// 
.................... //// This source code may only be used by licensed users of the CCS C  //// 
.................... //// compiler.  This source code may only be distributed to other      //// 
.................... //// licensed users of the CCS C compiler.  No other use, reproduction //// 
.................... //// or distribution is permitted without written permission.          //// 
.................... //// Derivative programs created using this software in object code    //// 
.................... //// form are not restricted in any way.                               //// 
.................... /////////////////////////////////////////////////////////////////////////// 
....................  
.................... #ifndef __LCD_C__ 
.................... #define __LCD_C__ 
....................  
.................... // define the pinout. 
.................... // only required if port access is being used. 
.................... typedef struct   
.................... {                            // This structure is overlayed 
....................    int1 enable;           // on to an I/O port to gain 
....................    int1 rs;               // access to the LCD pins. 
....................    int1 rw;               // The bits are allocated from 
....................    int1 unused;           // low order up.  ENABLE will 
....................    unsigned int     data : 4;         // be LSB pin of that port. 
....................   #if defined(__PCD__)       // The port used will be LCD_DATA_PORT. 
....................    unsigned int    reserved: 8; 
....................   #endif 
.................... } LCD_PIN_MAP; 
....................  
.................... // this is to improve compatability with previous LCD drivers that accepted 
.................... // a define labeled 'use_portb_lcd' that configured the LCD onto port B. 
.................... #if ((defined(use_portb_lcd)) && (use_portb_lcd==TRUE)) 
....................  #define LCD_DATA_PORT getenv("SFR:PORTB") 
.................... #endif 
....................  
.................... #if defined(__PCB__) 
....................    // these definitions only need to be modified for baseline PICs. 
....................    // all other PICs use LCD_PIN_MAP or individual LCD_xxx pin definitions. 
.................... /*                                    EN, RS,   RW,   UNUSED,  DATA  */ 
....................  const LCD_PIN_MAP LCD_OUTPUT_MAP =  {0,  0,    0,    0,       0}; 
....................  const LCD_PIN_MAP LCD_INPUT_MAP =   {0,  0,    0,    0,       0xF}; 
.................... #endif 
....................  
.................... ////////////////////// END CONFIGURATION /////////////////////////////////// 
....................  
.................... #ifndef LCD_ENABLE_PIN 
....................    #define lcd_output_enable(x) lcdlat.enable=x 
....................    #define lcd_enable_tris()   lcdtris.enable=0 
.................... #else 
....................    #define lcd_output_enable(x) output_bit(LCD_ENABLE_PIN, x) 
....................    #define lcd_enable_tris()  output_drive(LCD_ENABLE_PIN) 
.................... #endif 
....................  
.................... #ifndef LCD_RS_PIN 
....................    #define lcd_output_rs(x) lcdlat.rs=x 
....................    #define lcd_rs_tris()   lcdtris.rs=0 
.................... #else 
....................    #define lcd_output_rs(x) output_bit(LCD_RS_PIN, x) 
....................    #define lcd_rs_tris()  output_drive(LCD_RS_PIN) 
.................... #endif 
....................  
.................... #ifndef LCD_RW_PIN 
....................    #define lcd_output_rw(x) lcdlat.rw=x 
....................    #define lcd_rw_tris()   lcdtris.rw=0 
.................... #else 
....................    #define lcd_output_rw(x) output_bit(LCD_RW_PIN, x) 
....................    #define lcd_rw_tris()  output_drive(LCD_RW_PIN) 
.................... #endif 
....................  
.................... // original version of this library incorrectly labeled LCD_DATA0 as LCD_DATA4, 
.................... // LCD_DATA1 as LCD_DATA5, and so on.  this block of code makes the driver 
.................... // compatible with any code written for the original library 
.................... #if (defined(LCD_DATA0) && defined(LCD_DATA1) && defined(LCD_DATA2) && defined(LCD_DATA3) && !defined(LCD_DATA4) && !defined(LCD_DATA5) && !defined(LCD_DATA6) && !defined(LCD_DATA7)) 
....................    #define  LCD_DATA4    LCD_DATA0 
....................    #define  LCD_DATA5    LCD_DATA1 
....................    #define  LCD_DATA6    LCD_DATA2 
....................    #define  LCD_DATA7    LCD_DATA3 
.................... #endif 
....................  
.................... #ifndef LCD_DATA4 
.................... #ifndef LCD_DATA_PORT 
....................    #if defined(__PCB__) 
....................       #define LCD_DATA_PORT      0x06     //portb 
....................       #define set_tris_lcd(x)   set_tris_b(x) 
....................    #else 
....................      #if defined(PIN_D0) 
....................       #define LCD_DATA_PORT      getenv("SFR:PORTD")     //portd 
....................      #else 
....................       #define LCD_DATA_PORT      getenv("SFR:PORTB")     //portb 
....................      #endif 
....................    #endif    
.................... #endif 
....................  
.................... #if defined(__PCB__) 
....................    LCD_PIN_MAP lcd, lcdlat; 
....................    #byte lcd = LCD_DATA_PORT 
....................    #byte lcdlat = LCD_DATA_PORT 
.................... #elif defined(__PCM__) 
....................    LCD_PIN_MAP lcd, lcdlat, lcdtris; 
....................    #byte lcd = LCD_DATA_PORT 
....................    #byte lcdlat = LCD_DATA_PORT 
....................    #byte lcdtris = LCD_DATA_PORT+0x80 
.................... #elif defined(__PCH__) 
....................    LCD_PIN_MAP lcd, lcdlat, lcdtris; 
....................    #byte lcd = LCD_DATA_PORT 
....................    #byte lcdlat = LCD_DATA_PORT+9 
....................    #byte lcdtris = LCD_DATA_PORT+0x12 
.................... #elif defined(__PCD__) 
....................    LCD_PIN_MAP lcd, lcdlat, lcdtris; 
....................    #word lcd = LCD_DATA_PORT 
....................    #word lcdlat = LCD_DATA_PORT+2 
....................    #word lcdtris = LCD_DATA_PORT-0x02 
.................... #endif 
.................... #endif   //LCD_DATA4 not defined 
....................  
.................... #ifndef LCD_TYPE 
....................    #define LCD_TYPE 2           // 0=5x7, 1=5x10, 2=2 lines 
.................... #endif 
....................  
.................... #ifndef LCD_LINE_TWO 
....................    #define LCD_LINE_TWO 0x40    // LCD RAM address for the second line 
.................... #endif 
....................  
.................... #ifndef LCD_LINE_LENGTH 
....................    #define LCD_LINE_LENGTH 20 
.................... #endif 
....................  
.................... unsigned int8 lcd_read_nibble(void); 
....................  
.................... unsigned int8 lcd_read_byte(void) 
.................... { 
....................    unsigned int8 low,high; 
....................  
....................  #if defined(__PCB__) 
....................    set_tris_lcd(LCD_INPUT_MAP); 
....................  #else 
....................   #if (defined(LCD_DATA4) && defined(LCD_DATA5) && defined(LCD_DATA6) && defined(LCD_DATA7)) 
....................    output_float(LCD_DATA4); 
*
0147:  BSF    08.4
....................    output_float(LCD_DATA5); 
0148:  BSF    08.5
....................    output_float(LCD_DATA6); 
0149:  BSF    08.6
....................    output_float(LCD_DATA7); 
014A:  BSF    08.7
....................   #else 
....................    lcdtris.data = 0xF; 
....................   #endif 
....................  #endif 
....................          
....................    lcd_output_rw(1); 
014B:  BCF    03.5
014C:  BSF    05.4
014D:  BSF    03.5
014E:  BCF    05.4
....................    delay_cycles(1); 
014F:  NOP
....................    lcd_output_enable(1); 
0150:  BCF    03.5
0151:  BSF    05.3
0152:  BSF    03.5
0153:  BCF    05.3
....................    delay_cycles(1); 
0154:  NOP
....................    high = lcd_read_nibble(); 
0155:  BCF    03.5
0156:  CALL   10E
0157:  MOVF   78,W
0158:  MOVWF  51
....................        
....................    lcd_output_enable(0); 
0159:  BCF    05.3
015A:  BSF    03.5
015B:  BCF    05.3
....................    delay_cycles(1); 
015C:  NOP
....................    lcd_output_enable(1); 
015D:  BCF    03.5
015E:  BSF    05.3
015F:  BSF    03.5
0160:  BCF    05.3
....................    delay_us(1); 
0161:  GOTO   162
0162:  GOTO   163
0163:  NOP
....................    low = lcd_read_nibble(); 
0164:  BCF    03.5
0165:  CALL   10E
0166:  MOVF   78,W
0167:  MOVWF  50
....................        
....................    lcd_output_enable(0); 
0168:  BCF    05.3
0169:  BSF    03.5
016A:  BCF    05.3
....................  
....................  #if defined(__PCB__) 
....................    set_tris_lcd(LCD_OUTPUT_MAP); 
....................  #else 
....................   #if (defined(LCD_DATA4) && defined(LCD_DATA5) && defined(LCD_DATA6) && defined(LCD_DATA7)) 
....................    output_drive(LCD_DATA4); 
016B:  BCF    08.4
....................    output_drive(LCD_DATA5); 
016C:  BCF    08.5
....................    output_drive(LCD_DATA6); 
016D:  BCF    08.6
....................    output_drive(LCD_DATA7); 
016E:  BCF    08.7
....................   #else 
....................    lcdtris.data = 0x0; 
....................   #endif 
....................  #endif 
....................  
....................    return( (high<<4) | low); 
016F:  BCF    03.5
0170:  SWAPF  51,W
0171:  MOVWF  77
0172:  MOVLW  F0
0173:  ANDWF  77,F
0174:  MOVF   77,W
0175:  IORWF  50,W
0176:  MOVWF  78
.................... } 
....................  
.................... unsigned int8 lcd_read_nibble(void) 
.................... { 
....................   #if (defined(LCD_DATA4) && defined(LCD_DATA5) && defined(LCD_DATA6) && defined(LCD_DATA7)) 
*
010E:  CLRF   52
....................    unsigned int8 n = 0x00; 
....................  
....................    /* Read the data port */ 
....................    n |= input(LCD_DATA4); 
010F:  BSF    03.5
0110:  BSF    08.4
0111:  MOVLW  00
0112:  BCF    03.5
0113:  BTFSC  08.4
0114:  MOVLW  01
0115:  IORWF  52,F
....................    n |= input(LCD_DATA5) << 1; 
0116:  BSF    03.5
0117:  BSF    08.5
0118:  MOVLW  00
0119:  BCF    03.5
011A:  BTFSC  08.5
011B:  MOVLW  01
011C:  MOVWF  77
011D:  BCF    03.0
011E:  RLF    77,F
011F:  MOVF   77,W
0120:  IORWF  52,F
....................    n |= input(LCD_DATA6) << 2; 
0121:  BSF    03.5
0122:  BSF    08.6
0123:  MOVLW  00
0124:  BCF    03.5
0125:  BTFSC  08.6
0126:  MOVLW  01
0127:  MOVWF  77
0128:  RLF    77,F
0129:  RLF    77,F
012A:  MOVLW  FC
012B:  ANDWF  77,F
012C:  MOVF   77,W
012D:  IORWF  52,F
....................    n |= input(LCD_DATA7) << 3; 
012E:  BSF    03.5
012F:  BSF    08.7
0130:  MOVLW  00
0131:  BCF    03.5
0132:  BTFSC  08.7
0133:  MOVLW  01
0134:  MOVWF  77
0135:  RLF    77,F
0136:  RLF    77,F
0137:  RLF    77,F
0138:  MOVLW  F8
0139:  ANDWF  77,F
013A:  MOVF   77,W
013B:  IORWF  52,F
....................     
....................    return(n); 
013C:  MOVF   52,W
013D:  MOVWF  78
....................   #else 
013E:  RETURN
....................    return(lcd.data); 
....................   #endif 
.................... } 
....................  
.................... void lcd_send_nibble(unsigned int8 n) 
.................... { 
....................   #if (defined(LCD_DATA4) && defined(LCD_DATA5) && defined(LCD_DATA6) && defined(LCD_DATA7)) 
....................    /* Write to the data port */ 
....................    output_bit(LCD_DATA4, bit_test(n, 0)); 
*
00DE:  BTFSC  51.0
00DF:  GOTO   0E2
00E0:  BCF    08.4
00E1:  GOTO   0E3
00E2:  BSF    08.4
00E3:  BSF    03.5
00E4:  BCF    08.4
....................    output_bit(LCD_DATA5, bit_test(n, 1)); 
00E5:  BCF    03.5
00E6:  BTFSC  51.1
00E7:  GOTO   0EA
00E8:  BCF    08.5
00E9:  GOTO   0EB
00EA:  BSF    08.5
00EB:  BSF    03.5
00EC:  BCF    08.5
....................    output_bit(LCD_DATA6, bit_test(n, 2)); 
00ED:  BCF    03.5
00EE:  BTFSC  51.2
00EF:  GOTO   0F2
00F0:  BCF    08.6
00F1:  GOTO   0F3
00F2:  BSF    08.6
00F3:  BSF    03.5
00F4:  BCF    08.6
....................    output_bit(LCD_DATA7, bit_test(n, 3)); 
00F5:  BCF    03.5
00F6:  BTFSC  51.3
00F7:  GOTO   0FA
00F8:  BCF    08.7
00F9:  GOTO   0FB
00FA:  BSF    08.7
00FB:  BSF    03.5
00FC:  BCF    08.7
....................   #else       
....................    lcdlat.data = n; 
....................   #endif 
....................        
....................    delay_cycles(1); 
00FD:  NOP
....................    lcd_output_enable(1); 
00FE:  BCF    03.5
00FF:  BSF    05.3
0100:  BSF    03.5
0101:  BCF    05.3
....................    delay_us(2); 
0102:  MOVLW  02
0103:  MOVWF  77
0104:  DECFSZ 77,F
0105:  GOTO   104
0106:  GOTO   107
0107:  NOP
....................    lcd_output_enable(0); 
0108:  BCF    03.5
0109:  BCF    05.3
010A:  BSF    03.5
010B:  BCF    05.3
010C:  BCF    03.5
010D:  RETURN
.................... } 
....................  
.................... void lcd_send_byte(unsigned int8 address, unsigned int8 n) 
.................... { 
....................   #if defined(__PCB__) 
....................    set_tris_lcd(LCD_OUTPUT_MAP); 
....................   #else 
....................    lcd_enable_tris(); 
*
013F:  BSF    03.5
0140:  BCF    05.3
....................    lcd_rs_tris(); 
0141:  BCF    05.5
....................    lcd_rw_tris(); 
0142:  BCF    05.4
....................   #endif 
....................  
....................    lcd_output_rs(0); 
0143:  BCF    03.5
0144:  BCF    05.5
0145:  BSF    03.5
0146:  BCF    05.5
....................    while ( bit_test(lcd_read_byte(),7) ) ; 
*
0177:  MOVF   78,W
0178:  MOVWF  50
0179:  BTFSS  50.7
017A:  GOTO   17D
017B:  BSF    03.5
017C:  GOTO   147
....................    lcd_output_rs(address); 
017D:  MOVF   4E,F
017E:  BTFSS  03.2
017F:  GOTO   182
0180:  BCF    05.5
0181:  GOTO   183
0182:  BSF    05.5
0183:  BSF    03.5
0184:  BCF    05.5
....................    delay_cycles(1); 
0185:  NOP
....................    lcd_output_rw(0); 
0186:  BCF    03.5
0187:  BCF    05.4
0188:  BSF    03.5
0189:  BCF    05.4
....................    delay_cycles(1); 
018A:  NOP
....................    lcd_output_enable(0); 
018B:  BCF    03.5
018C:  BCF    05.3
018D:  BSF    03.5
018E:  BCF    05.3
....................    lcd_send_nibble(n >> 4); 
018F:  BCF    03.5
0190:  SWAPF  4F,W
0191:  MOVWF  50
0192:  MOVLW  0F
0193:  ANDWF  50,F
0194:  MOVF   50,W
0195:  MOVWF  51
0196:  CALL   0DE
....................    lcd_send_nibble(n & 0xf); 
0197:  MOVF   4F,W
0198:  ANDLW  0F
0199:  MOVWF  50
019A:  MOVWF  51
019B:  CALL   0DE
019C:  RETURN
.................... } 
....................  
.................... #if defined(LCD_EXTENDED_NEWLINE) 
.................... unsigned int8 g_LcdX, g_LcdY; 
.................... #endif 
....................  
.................... void lcd_init(void)  
.................... { 
....................    unsigned int8 i; 
....................    unsigned int8 LCD_INIT_STRING[4] = {0x20 | (LCD_TYPE << 2), 0xc, 1, 6}; 
019D:  MOVLW  28
019E:  MOVWF  3B
019F:  MOVLW  0C
01A0:  MOVWF  3C
01A1:  MOVLW  01
01A2:  MOVWF  3D
01A3:  MOVLW  06
01A4:  MOVWF  3E
....................                              // These bytes need to be sent to the LCD 
....................                              // to start it up. 
....................     
....................  
....................    lcd_output_enable(0); 
01A5:  BCF    05.3
01A6:  BSF    03.5
01A7:  BCF    05.3
....................    lcd_output_rs(0); 
01A8:  BCF    03.5
01A9:  BCF    05.5
01AA:  BSF    03.5
01AB:  BCF    05.5
....................    lcd_output_rw(0); 
01AC:  BCF    03.5
01AD:  BCF    05.4
01AE:  BSF    03.5
01AF:  BCF    05.4
....................  
....................  #if defined(__PCB__) 
....................    set_tris_lcd(LCD_OUTPUT_MAP); 
....................  #else 
....................   #if (defined(LCD_DATA4) && defined(LCD_DATA5) && defined(LCD_DATA6) && defined(LCD_DATA7)) 
....................    output_drive(LCD_DATA4); 
01B0:  BCF    08.4
....................    output_drive(LCD_DATA5); 
01B1:  BCF    08.5
....................    output_drive(LCD_DATA6); 
01B2:  BCF    08.6
....................    output_drive(LCD_DATA7); 
01B3:  BCF    08.7
....................   #else 
....................    lcdtris.data = 0x0; 
....................   #endif 
....................    lcd_enable_tris(); 
01B4:  BCF    05.3
....................    lcd_rs_tris(); 
01B5:  BCF    05.5
....................    lcd_rw_tris(); 
01B6:  BCF    05.4
....................  #endif 
....................      
....................    delay_ms(15); 
01B7:  MOVLW  0F
01B8:  BCF    03.5
01B9:  MOVWF  4A
01BA:  CALL   0CA
....................    for(i=1;i<=3;++i) 
01BB:  MOVLW  01
01BC:  MOVWF  3A
01BD:  MOVF   3A,W
01BE:  SUBLW  03
01BF:  BTFSS  03.0
01C0:  GOTO   1C9
....................    { 
....................        lcd_send_nibble(3); 
01C1:  MOVLW  03
01C2:  MOVWF  51
01C3:  CALL   0DE
....................        delay_ms(5); 
01C4:  MOVLW  05
01C5:  MOVWF  4A
01C6:  CALL   0CA
01C7:  INCF   3A,F
01C8:  GOTO   1BD
....................    } 
....................     
....................    lcd_send_nibble(2); 
01C9:  MOVLW  02
01CA:  MOVWF  51
01CB:  CALL   0DE
....................    delay_ms(5); 
01CC:  MOVLW  05
01CD:  MOVWF  4A
01CE:  CALL   0CA
....................    for(i=0;i<=3;++i) 
01CF:  CLRF   3A
01D0:  MOVF   3A,W
01D1:  SUBLW  03
01D2:  BTFSS  03.0
01D3:  GOTO   1E0
....................       lcd_send_byte(0,LCD_INIT_STRING[i]); 
01D4:  MOVLW  3B
01D5:  ADDWF  3A,W
01D6:  MOVWF  04
01D7:  BCF    03.7
01D8:  MOVF   00,W
01D9:  MOVWF  3F
01DA:  CLRF   4E
01DB:  MOVF   3F,W
01DC:  MOVWF  4F
01DD:  CALL   13F
....................  
....................   #if defined(LCD_EXTENDED_NEWLINE) 
01DE:  INCF   3A,F
01DF:  GOTO   1D0
01E0:  BSF    0A.3
01E1:  BCF    0A.4
01E2:  GOTO   019 (RETURN)
....................    g_LcdX = 0; 
....................    g_LcdY = 0; 
....................   #endif 
.................... } 
....................  
.................... void lcd_gotoxy(unsigned int8 x, unsigned int8 y) 
.................... { 
....................    unsigned int8 address; 
....................     
....................    if(y!=1) 
*
01FE:  DECFSZ 4B,W
01FF:  GOTO   201
0200:  GOTO   204
....................       address=LCD_LINE_TWO; 
0201:  MOVLW  40
0202:  MOVWF  4C
0203:  GOTO   205
....................    else 
....................       address=0; 
0204:  CLRF   4C
....................       
....................    address+=x-1; 
0205:  MOVLW  01
0206:  SUBWF  4A,W
0207:  ADDWF  4C,F
....................    lcd_send_byte(0,0x80|address); 
0208:  MOVF   4C,W
0209:  IORLW  80
020A:  MOVWF  4D
020B:  CLRF   4E
020C:  MOVF   4D,W
020D:  MOVWF  4F
020E:  CALL   13F
....................  
....................   #if defined(LCD_EXTENDED_NEWLINE) 
020F:  RETURN
....................    g_LcdX = x - 1; 
....................    g_LcdY = y - 1; 
....................   #endif 
.................... } 
....................  
.................... void lcd_putc(char c) 
.................... { 
....................    switch (c) 
0210:  MOVF   49,W
0211:  XORLW  07
0212:  BTFSC  03.2
0213:  GOTO   21E
0214:  XORLW  0B
0215:  BTFSC  03.2
0216:  GOTO   223
0217:  XORLW  06
0218:  BTFSC  03.2
0219:  GOTO   22B
021A:  XORLW  02
021B:  BTFSC  03.2
021C:  GOTO   231
021D:  GOTO   236
....................    { 
....................       case '\a'   :  lcd_gotoxy(1,1);     break; 
021E:  MOVLW  01
021F:  MOVWF  4A
0220:  MOVWF  4B
0221:  CALL   1FE
0222:  GOTO   23B
....................  
....................       case '\f'   :  lcd_send_byte(0,1); 
0223:  CLRF   4E
0224:  MOVLW  01
0225:  MOVWF  4F
0226:  CALL   13F
....................                      delay_ms(2); 
0227:  MOVLW  02
0228:  MOVWF  4A
0229:  CALL   0CA
....................                     #if defined(LCD_EXTENDED_NEWLINE) 
....................                      g_LcdX = 0; 
....................                      g_LcdY = 0; 
....................                     #endif 
....................                      break; 
022A:  GOTO   23B
....................  
....................      #if defined(LCD_EXTENDED_NEWLINE) 
....................       case '\r'   :  lcd_gotoxy(1, g_LcdY+1);   break; 
....................       case '\n'   : 
....................          while (g_LcdX++ < LCD_LINE_LENGTH) 
....................          { 
....................             lcd_send_byte(1, ' '); 
....................          } 
....................          lcd_gotoxy(1, g_LcdY+2); 
....................          break; 
....................      #else 
....................       case '\n'   : lcd_gotoxy(1,2);        break; 
022B:  MOVLW  01
022C:  MOVWF  4A
022D:  MOVLW  02
022E:  MOVWF  4B
022F:  CALL   1FE
0230:  GOTO   23B
....................      #endif 
....................       
....................       case '\b'   : lcd_send_byte(0,0x10);  break; 
0231:  CLRF   4E
0232:  MOVLW  10
0233:  MOVWF  4F
0234:  CALL   13F
0235:  GOTO   23B
....................       
....................      #if defined(LCD_EXTENDED_NEWLINE) 
....................       default     :  
....................          if (g_LcdX < LCD_LINE_LENGTH) 
....................          { 
....................             lcd_send_byte(1, c); 
....................             g_LcdX++; 
....................          } 
....................          break; 
....................      #else 
....................       default     : lcd_send_byte(1,c);     break; 
0236:  MOVLW  01
0237:  MOVWF  4E
0238:  MOVF   49,W
0239:  MOVWF  4F
023A:  CALL   13F
....................      #endif 
....................    } 
023B:  RETURN
.................... } 
....................   
.................... char lcd_getc(unsigned int8 x, unsigned int8 y) 
.................... { 
....................    char value; 
....................  
....................    lcd_gotoxy(x,y); 
....................    while ( bit_test(lcd_read_byte(),7) ); // wait until busy flag is low 
....................    lcd_output_rs(1); 
....................    value = lcd_read_byte(); 
....................    lcd_output_rs(0); 
....................     
....................    return(value); 
.................... } 
....................  
.................... // write a custom character to the ram 
.................... // which is 0-7 and specifies which character array we are modifying. 
.................... // ptr points to an array of 8 bytes, where each byte is the next row of 
.................... //    pixels.  only bits 0-4 are used.  the last row is the cursor row, and 
.................... //    usually you will want to leave this byte 0x00. 
.................... void lcd_set_cgram_char(unsigned int8 which, unsigned int8 *ptr) 
.................... { 
....................    unsigned int i; 
....................  
....................    which <<= 3; 
....................    which &= 0x38; 
....................  
....................    lcd_send_byte(0, 0x40 | which);  //set cgram address 
....................  
....................    for(i=0; i<8; i++) 
....................    { 
....................       lcd_send_byte(1, *ptr++); 
....................    } 
....................    
....................    #if defined(LCD_EXTENDED_NEWLINE) 
....................     lcd_gotoxy(g_LcdX+1, g_LcdY+1);  //set ddram address 
....................    #endif 
.................... } 
....................  
.................... void lcd_cursor_on(int1 on) 
.................... { 
....................    if (on) 
....................    { 
....................       lcd_send_byte(0,0x0F);           //turn LCD cursor ON 
....................    } 
....................    else 
....................    { 
....................       lcd_send_byte(0,0x0C);           //turn LCD cursor OFF 
....................    } 
.................... } 
....................  
.................... #endif 
....................  
.................... #define KBD_A PIN_C0 
.................... #define KBD_B PIN_C1 
.................... #define KBD_C PIN_C2 
.................... #define KBD_D PIN_C3 
.................... #define KBD_1 PIN_C4 
.................... #define KBD_2 PIN_C5 
.................... #define KBD_3 PIN_C6 
.................... #define KBD_4 PIN_C7 
.................... #include <kbd_4x4_custom.c> //Librera teclado 4x4 puerto B 
.................... // Es requerido cada pin como KBD_A 
.................... // Cada tecla A,B,C y D son salidas 
.................... // Cada tecla 1,2,3 y 4 son entradas 
....................  
.................... #define KBD_DEBOUNCE_FACTOR 20 
....................  
.................... #ifndef KBD_A 
....................    #define KBD_A PIN_B0 
.................... #endif 
....................  
.................... #ifndef KBD_B 
....................    #define KBD_B PIN_B1 
.................... #endif 
....................  
.................... #ifndef KBD_C 
....................    #define KBD_C PIN_B2 
.................... #endif 
....................  
.................... #ifndef KBD_D 
....................    #define KBD_D PIN_B3 
.................... #endif 
....................  
.................... #ifndef KBD_1 
....................    #define KBD_1 PIN_B4 
.................... #endif 
....................  
.................... #ifndef KBD_2 
....................    #define KBD_2 PIN_B5 
.................... #endif 
....................  
.................... #ifndef KBD_3 
....................    #define KBD_3 PIN_B6 
.................... #endif 
....................  
.................... #ifndef KBD_4 
....................    #define KBD_4 PIN_B7 
.................... #endif 
....................  
.................... // Teclas distribudas fsicamente 
.................... char const KEYS[4][4] = {{'7','8','9','/'}, 
....................                          {'4','5','6','*'}, 
....................                          {'1','2','3','-'}, 
....................                          {'C','0','=','+'}}; 
....................  
.................... void kbd_init() { 
....................    output_high(KBD_A); 
*
01E3:  BCF    2B.0
01E4:  MOVF   2B,W
01E5:  BSF    03.5
01E6:  MOVWF  07
01E7:  BCF    03.5
01E8:  BSF    07.0
....................    output_high(KBD_B); 
01E9:  BCF    2B.1
01EA:  MOVF   2B,W
01EB:  BSF    03.5
01EC:  MOVWF  07
01ED:  BCF    03.5
01EE:  BSF    07.1
....................    output_high(KBD_C); 
01EF:  BCF    2B.2
01F0:  MOVF   2B,W
01F1:  BSF    03.5
01F2:  MOVWF  07
01F3:  BCF    03.5
01F4:  BSF    07.2
....................    output_high(KBD_D); 
01F5:  BCF    2B.3
01F6:  MOVF   2B,W
01F7:  BSF    03.5
01F8:  MOVWF  07
01F9:  BCF    03.5
01FA:  BSF    07.3
01FB:  BSF    0A.3
01FC:  BCF    0A.4
01FD:  GOTO   01C (RETURN)
.................... } 
....................  
.................... int read_row(int col){   
....................    switch(col){ 
*
0292:  MOVF   4A,W
0293:  ADDLW  FC
0294:  BTFSC  03.0
0295:  GOTO   2FB
0296:  ADDLW  04
0297:  GOTO   328
....................       case 0: 
....................          output_low(KBD_A); 
0298:  BCF    2B.0
0299:  MOVF   2B,W
029A:  BSF    03.5
029B:  MOVWF  07
029C:  BCF    03.5
029D:  BCF    07.0
....................          output_high(KBD_B); 
029E:  BCF    2B.1
029F:  MOVF   2B,W
02A0:  BSF    03.5
02A1:  MOVWF  07
02A2:  BCF    03.5
02A3:  BSF    07.1
....................          output_high(KBD_C); 
02A4:  BCF    2B.2
02A5:  MOVF   2B,W
02A6:  BSF    03.5
02A7:  MOVWF  07
02A8:  BCF    03.5
02A9:  BSF    07.2
....................          output_high(KBD_D); 
02AA:  BCF    2B.3
02AB:  MOVF   2B,W
02AC:  BSF    03.5
02AD:  MOVWF  07
02AE:  BCF    03.5
02AF:  BSF    07.3
....................       break; 
02B0:  GOTO   2FB
....................       case 1: 
....................          output_high(KBD_A); 
02B1:  BCF    2B.0
02B2:  MOVF   2B,W
02B3:  BSF    03.5
02B4:  MOVWF  07
02B5:  BCF    03.5
02B6:  BSF    07.0
....................          output_low(KBD_B); 
02B7:  BCF    2B.1
02B8:  MOVF   2B,W
02B9:  BSF    03.5
02BA:  MOVWF  07
02BB:  BCF    03.5
02BC:  BCF    07.1
....................          output_high(KBD_C); 
02BD:  BCF    2B.2
02BE:  MOVF   2B,W
02BF:  BSF    03.5
02C0:  MOVWF  07
02C1:  BCF    03.5
02C2:  BSF    07.2
....................          output_high(KBD_D); 
02C3:  BCF    2B.3
02C4:  MOVF   2B,W
02C5:  BSF    03.5
02C6:  MOVWF  07
02C7:  BCF    03.5
02C8:  BSF    07.3
....................       break; 
02C9:  GOTO   2FB
....................       case 2: 
....................          output_high(KBD_A); 
02CA:  BCF    2B.0
02CB:  MOVF   2B,W
02CC:  BSF    03.5
02CD:  MOVWF  07
02CE:  BCF    03.5
02CF:  BSF    07.0
....................          output_high(KBD_B); 
02D0:  BCF    2B.1
02D1:  MOVF   2B,W
02D2:  BSF    03.5
02D3:  MOVWF  07
02D4:  BCF    03.5
02D5:  BSF    07.1
....................          output_low(KBD_C); 
02D6:  BCF    2B.2
02D7:  MOVF   2B,W
02D8:  BSF    03.5
02D9:  MOVWF  07
02DA:  BCF    03.5
02DB:  BCF    07.2
....................          output_high(KBD_D); 
02DC:  BCF    2B.3
02DD:  MOVF   2B,W
02DE:  BSF    03.5
02DF:  MOVWF  07
02E0:  BCF    03.5
02E1:  BSF    07.3
....................       break; 
02E2:  GOTO   2FB
....................       case 3: 
....................          output_high(KBD_A); 
02E3:  BCF    2B.0
02E4:  MOVF   2B,W
02E5:  BSF    03.5
02E6:  MOVWF  07
02E7:  BCF    03.5
02E8:  BSF    07.0
....................          output_high(KBD_B); 
02E9:  BCF    2B.1
02EA:  MOVF   2B,W
02EB:  BSF    03.5
02EC:  MOVWF  07
02ED:  BCF    03.5
02EE:  BSF    07.1
....................          output_high(KBD_C); 
02EF:  BCF    2B.2
02F0:  MOVF   2B,W
02F1:  BSF    03.5
02F2:  MOVWF  07
02F3:  BCF    03.5
02F4:  BSF    07.2
....................          output_low(KBD_D); 
02F5:  BCF    2B.3
02F6:  MOVF   2B,W
02F7:  BSF    03.5
02F8:  MOVWF  07
02F9:  BCF    03.5
02FA:  BCF    07.3
....................       break; 
....................    } 
....................    if(!input(KBD_1))return 0; 
02FB:  BSF    2B.4
02FC:  MOVF   2B,W
02FD:  BSF    03.5
02FE:  MOVWF  07
02FF:  BCF    03.5
0300:  BTFSC  07.4
0301:  GOTO   305
0302:  MOVLW  00
0303:  MOVWF  78
0304:  GOTO   325
....................    if(!input(KBD_2))return 1; 
0305:  BSF    2B.5
0306:  MOVF   2B,W
0307:  BSF    03.5
0308:  MOVWF  07
0309:  BCF    03.5
030A:  BTFSC  07.5
030B:  GOTO   30F
030C:  MOVLW  01
030D:  MOVWF  78
030E:  GOTO   325
....................    if(!input(KBD_3))return 2; 
030F:  BSF    2B.6
0310:  MOVF   2B,W
0311:  BSF    03.5
0312:  MOVWF  07
0313:  BCF    03.5
0314:  BTFSC  07.6
0315:  GOTO   319
0316:  MOVLW  02
0317:  MOVWF  78
0318:  GOTO   325
....................    if(!input(KBD_4))return 3; 
0319:  BSF    2B.7
031A:  MOVF   2B,W
031B:  BSF    03.5
031C:  MOVWF  07
031D:  BCF    03.5
031E:  BTFSC  07.7
031F:  GOTO   323
0320:  MOVLW  03
0321:  MOVWF  78
0322:  GOTO   325
....................    return 69; 
0323:  MOVLW  45
0324:  MOVWF  78
0325:  BCF    0A.3
0326:  BCF    0A.4
0327:  GOTO   375 (RETURN)
.................... } 
....................  
....................  
....................  
.................... char kbd_getc( ) { 
*
0367:  BCF    47.0
....................    static byte kbd_call_count; 
*
0815:  BCF    03.5
0816:  CLRF   2C
....................    static int1 kbd_down=FALSE; 
....................    int1 pressed_flag=0; 
....................    int row, i; 
....................    if(++kbd_call_count>KBD_DEBOUNCE_FACTOR) { 
*
0368:  INCF   2C,F
0369:  MOVF   2C,W
036A:  SUBLW  14
036B:  BTFSC  03.0
036C:  GOTO   39F
....................       for(i=0; i<4; i++){ 
036D:  CLRF   49
036E:  MOVF   49,W
036F:  SUBLW  03
0370:  BTFSS  03.0
0371:  GOTO   39C
....................          row = read_row(i); 
0372:  MOVF   49,W
0373:  MOVWF  4A
0374:  GOTO   292
0375:  MOVF   78,W
0376:  MOVWF  48
....................          pressed_flag |= row != 69; 
0377:  MOVF   48,W
0378:  SUBLW  45
0379:  BTFSS  03.2
037A:  GOTO   37D
037B:  MOVLW  00
037C:  GOTO   37E
037D:  MOVLW  01
037E:  MOVWF  4A
037F:  MOVLW  00
0380:  BTFSC  47.0
0381:  MOVLW  01
0382:  IORWF  4A,W
0383:  MOVWF  78
0384:  BCF    47.0
0385:  BTFSC  78.0
0386:  BSF    47.0
....................           
....................          if(!kbd_down && row != 69){ // pressed and was not pressed 
0387:  BTFSC  2D.0
0388:  GOTO   39A
0389:  MOVF   48,W
038A:  SUBLW  45
038B:  BTFSC  03.2
038C:  GOTO   39A
....................             kbd_down=TRUE; 
038D:  BSF    2D.0
....................             kbd_call_count=0; 
038E:  CLRF   2C
....................             return KEYS[i][row]; 
038F:  RLF    49,W
0390:  MOVWF  77
0391:  RLF    77,F
0392:  MOVLW  FC
0393:  ANDWF  77,F
0394:  MOVF   77,W
0395:  ADDWF  48,W
0396:  CALL   058
0397:  MOVWF  78
0398:  MOVWF  78
0399:  GOTO   3A1
....................          } 
039A:  INCF   49,F
039B:  GOTO   36E
....................       } 
....................        
....................       if(!pressed_flag){ // not pressed 
039C:  BTFSS  47.0
....................          kbd_down=FALSE; 
039D:  BCF    2D.0
....................       } 
....................       kbd_call_count=0; 
039E:  CLRF   2C
....................    } 
....................    return '\0'; 
039F:  MOVLW  00
03A0:  MOVWF  78
.................... } 
....................  
.................... char kbd_waitc(){ 
....................    char c; 
....................    do{ 
....................       c = kbd_getc(); 
....................    }while(c=='\0'); 
....................    return c; 
.................... } 
....................  
.................... #include <getNum16.c> 
.................... /* 
....................    ** Se requiere haber inicializado el lcd y el teclado **  
....................     
....................    Usar como "int16 numero = get_num();" no puede borrar numeros 
....................     
....................    Al usar como "int16 numero = get_num_lcd(cursor_x,cursor_y)" 
....................    se pueden borrar caracteres con '-' y con 'C' 
....................        
....................    Por Angel Primitivo Vejar Corts 2022 | angel-primi@hotmail.com 
.................... */ 
....................  
.................... unsigned int32 pow(int8 base, int8 power){ 
*
0419:  CLRF   4D
041A:  CLRF   4C
041B:  CLRF   4B
041C:  MOVLW  01
041D:  MOVWF  4A
....................    int32 result = 1; 
....................    for(int8 i = 0; i < power; i++){ 
041E:  CLRF   4E
041F:  MOVF   49,W
0420:  SUBWF  4E,W
0421:  BTFSC  03.0
0422:  GOTO   43B
....................       result *= base; 
0423:  MOVF   4D,W
0424:  MOVWF  52
0425:  MOVF   4C,W
0426:  MOVWF  51
0427:  MOVF   4B,W
0428:  MOVWF  50
0429:  MOVF   4A,W
042A:  MOVWF  4F
042B:  CLRF   56
042C:  CLRF   55
042D:  CLRF   54
042E:  MOVF   48,W
042F:  MOVWF  53
0430:  CALL   330
0431:  MOVF   7A,W
0432:  MOVWF  4D
0433:  MOVF   79,W
0434:  MOVWF  4C
0435:  MOVF   78,W
0436:  MOVWF  4B
0437:  MOVF   77,W
0438:  MOVWF  4A
0439:  INCF   4E,F
043A:  GOTO   41F
....................    } 
....................    return result; 
043B:  MOVF   4A,W
043C:  MOVWF  77
043D:  MOVF   4B,W
043E:  MOVWF  78
043F:  MOVF   4C,W
0440:  MOVWF  79
0441:  MOVF   4D,W
0442:  MOVWF  7A
.................... } 
....................  
.................... char read_key(){ 
....................    char c; 
....................    do{ 
....................       c=kbd_getc(); 
*
03A1:  MOVF   78,W
03A2:  MOVWF  46
....................    } 
....................    while(c=='\0');  
03A3:  MOVF   46,F
03A4:  BTFSC  03.2
03A5:  GOTO   367
....................    return(c); 
03A6:  MOVF   46,W
03A7:  MOVWF  78
.................... } 
....................  
.................... int16 get_num_lcd(int8 x, int8 y){ 
....................    lcd_gotoxy(x,y); 
*
035A:  MOVF   3A,W
035B:  MOVWF  4A
035C:  MOVF   3B,W
035D:  MOVWF  4B
035E:  CALL   1FE
....................    int16 numero = 0; 
....................    char cadena[5] = {0,0,0,0,0}; 
*
0361:  CLRF   3E
0362:  CLRF   3F
0363:  CLRF   40
0364:  CLRF   41
0365:  CLRF   42
....................    int8 index = 0; 
....................    char tecla; 
*
035F:  CLRF   3D
0360:  CLRF   3C
*
0366:  CLRF   43
....................    do { 
....................       tecla = read_key(); 
*
03A8:  MOVF   78,W
03A9:  MOVWF  44
....................       if((tecla >= 48) && (tecla <= 57))  
03AA:  MOVF   44,W
03AB:  SUBLW  2F
03AC:  BTFSC  03.0
03AD:  GOTO   3BC
03AE:  MOVF   44,W
03AF:  SUBLW  39
03B0:  BTFSS  03.0
03B1:  GOTO   3BC
....................       { 
....................          cadena[index] = tecla; 
03B2:  MOVLW  3E
03B3:  ADDWF  43,W
03B4:  MOVWF  04
03B5:  BCF    03.7
03B6:  MOVF   44,W
03B7:  MOVWF  00
....................          index++; 
03B8:  INCF   43,F
....................          printf(lcd_putc,"%c",tecla); 
03B9:  MOVF   44,W
03BA:  MOVWF  49
03BB:  CALL   210
....................       } 
....................        
....................       if(tecla == '-' && index > 0){ 
03BC:  MOVF   44,W
03BD:  SUBLW  2D
03BE:  BTFSS  03.2
03BF:  GOTO   3DA
03C0:  MOVF   43,F
03C1:  BTFSC  03.2
03C2:  GOTO   3DA
....................          index--; 
03C3:  DECF   43,F
....................          cadena[index] = 0; 
03C4:  MOVLW  3E
03C5:  ADDWF  43,W
03C6:  MOVWF  04
03C7:  BCF    03.7
03C8:  CLRF   00
....................          lcd_gotoxy(x + index,y); 
03C9:  MOVF   43,W
03CA:  ADDWF  3A,W
03CB:  MOVWF  46
03CC:  MOVWF  4A
03CD:  MOVF   3B,W
03CE:  MOVWF  4B
03CF:  CALL   1FE
....................          printf(lcd_putc," "); 
03D0:  MOVLW  20
03D1:  MOVWF  49
03D2:  CALL   210
....................          lcd_gotoxy(x + index,y); 
03D3:  MOVF   43,W
03D4:  ADDWF  3A,W
03D5:  MOVWF  46
03D6:  MOVWF  4A
03D7:  MOVF   3B,W
03D8:  MOVWF  4B
03D9:  CALL   1FE
....................       } 
....................        
....................       if(tecla == 'C' && index > 0){ 
03DA:  MOVF   44,W
03DB:  SUBLW  43
03DC:  BTFSS  03.2
03DD:  GOTO   3F8
03DE:  MOVF   43,F
03DF:  BTFSC  03.2
03E0:  GOTO   3F8
....................          index=0; 
03E1:  CLRF   43
....................          cadena[0] = 0; 
03E2:  CLRF   3E
....................          cadena[1] = 0; 
03E3:  CLRF   3F
....................          cadena[2] = 0; 
03E4:  CLRF   40
....................          cadena[3] = 0; 
03E5:  CLRF   41
....................          cadena[4] = 0; 
03E6:  CLRF   42
....................          lcd_gotoxy(x,y); 
03E7:  MOVF   3A,W
03E8:  MOVWF  4A
03E9:  MOVF   3B,W
03EA:  MOVWF  4B
03EB:  CALL   1FE
....................          printf(lcd_putc,"     "); 
03EC:  MOVLW  6C
03ED:  BSF    03.6
03EE:  MOVWF  0D
03EF:  MOVLW  00
03F0:  MOVWF  0F
03F1:  BCF    03.6
03F2:  CALL   23C
....................          lcd_gotoxy(x,y); 
03F3:  MOVF   3A,W
03F4:  MOVWF  4A
03F5:  MOVF   3B,W
03F6:  MOVWF  4B
03F7:  CALL   1FE
....................       } 
....................        
....................       if(tecla == '=' && index > 0){ 
03F8:  MOVF   44,W
03F9:  SUBLW  3D
03FA:  BTFSS  03.2
03FB:  GOTO   3FF
03FC:  MOVF   43,F
03FD:  BTFSS  03.2
....................          break;      
03FE:  GOTO   403
....................       } 
....................    }while(index < 5); 
03FF:  MOVF   43,W
0400:  SUBLW  04
0401:  BTFSC  03.0
0402:  GOTO   367
....................     
....................    for(int8 i = 0; i < index; i++){ 
0403:  CLRF   45
0404:  MOVF   43,W
0405:  SUBWF  45,W
0406:  BTFSC  03.0
0407:  GOTO   464
....................       numero += (cadena[i] - 48) * (pow(10,index - 1 - i)); 
0408:  MOVLW  3E
0409:  ADDWF  45,W
040A:  MOVWF  04
040B:  BCF    03.7
040C:  MOVLW  30
040D:  SUBWF  00,W
040E:  MOVWF  46
040F:  MOVLW  01
0410:  SUBWF  43,W
0411:  MOVWF  78
0412:  MOVF   45,W
0413:  SUBWF  78,W
0414:  MOVWF  47
0415:  MOVLW  0A
0416:  MOVWF  48
0417:  MOVF   47,W
0418:  MOVWF  49
*
0443:  CLRF   48
0444:  MOVF   04,W
0445:  MOVWF  47
0446:  BCF    48.0
0447:  BTFSC  03.7
0448:  BSF    48.0
0449:  CLRF   52
044A:  CLRF   51
044B:  CLRF   50
044C:  MOVF   46,W
044D:  MOVWF  4F
044E:  MOVF   7A,W
044F:  MOVWF  56
0450:  MOVF   79,W
0451:  MOVWF  55
0452:  MOVF   78,W
0453:  MOVWF  54
0454:  MOVF   77,W
0455:  MOVWF  53
0456:  CALL   330
0457:  MOVF   47,W
0458:  MOVWF  04
0459:  BCF    03.7
045A:  BTFSC  48.0
045B:  BSF    03.7
045C:  MOVF   77,W
045D:  ADDWF  3C,F
045E:  MOVF   78,W
045F:  BTFSC  03.0
0460:  INCFSZ 78,W
0461:  ADDWF  3D,F
0462:  INCF   45,F
0463:  GOTO   404
....................    }   
....................    return numero; 
0464:  MOVF   3C,W
0465:  MOVWF  78
0466:  MOVF   3D,W
0467:  MOVWF  79
0468:  BSF    0A.3
0469:  BCF    0A.4
046A:  GOTO   040 (RETURN)
.................... } 
....................  
.................... int16 get_num() { 
....................    int16 numero = 0; 
....................    char cadena[5] = {0,0,0,0,0}; 
....................    int8 index = 0; 
....................    char tecla; 
....................    do { 
....................       tecla = read_key(); 
....................       if((tecla >= 48) && (tecla <= 57))  
....................       { 
....................          cadena[index] = tecla; 
....................          index++; 
....................          printf(lcd_putc,"%c",tecla); 
....................       } 
....................        
....................       if(tecla == '=' && index > 0){ 
....................          break;      
....................       } 
....................    }while(index < 5); 
....................     
....................    for(int8 i = 0; i < index; i++){ 
....................       numero += (cadena[i] - 48) * (pow(10,index - 1 - i)); 
....................    }   
....................    return numero; 
.................... } 
....................  
....................  
.................... #use STANDARD_IO(B) 
.................... #use STANDARD_IO(E) 
.................... #use STANDARD_IO(D) 
....................  
.................... #define PWM_PIN PIN_B1 
.................... #define Motor PIN_B2 
.................... #define carga 61 
....................  
.................... int16 pulsos = 0,velocidad_deseada = 0,velocidad_actual = 0; 
.................... int1 esAltoPWM = 0; 
.................... int16 carga_bajo,carga_alto; 
....................  
.................... #INT_TIMER1 
.................... void timer1_isr(){ 
....................    if(esAltoPWM == 1){ 
*
006F:  BTFSS  2D.1
0070:  GOTO   07C
....................       set_timer1(carga_bajo); 
0071:  CLRF   0E
0072:  MOVF   35,W
0073:  MOVWF  0F
0074:  MOVF   34,W
0075:  MOVWF  0E
....................       output_low(PWM_PIN); 
0076:  BSF    03.5
0077:  BCF    06.1
0078:  BCF    03.5
0079:  BCF    06.1
....................       esAltoPWM = 0; 
007A:  BCF    2D.1
....................    }else{ 
007B:  GOTO   086
....................       set_timer1(carga_alto); 
007C:  CLRF   0E
007D:  MOVF   37,W
007E:  MOVWF  0F
007F:  MOVF   36,W
0080:  MOVWF  0E
....................       output_high(PWM_PIN); 
0081:  BSF    03.5
0082:  BCF    06.1
0083:  BCF    03.5
0084:  BSF    06.1
....................       esAltoPWM = 1; 
0085:  BSF    2D.1
....................    } 
....................    if(velocidad_deseada == 6600){ 
0086:  MOVF   30,W
0087:  SUBLW  C8
0088:  BTFSS  03.2
0089:  GOTO   093
008A:  MOVF   31,W
008B:  SUBLW  19
008C:  BTFSS  03.2
008D:  GOTO   093
....................       output_high(PWM_PIN); 
008E:  BSF    03.5
008F:  BCF    06.1
0090:  BCF    03.5
0091:  BSF    06.1
....................    }else if(velocidad_deseada == 0){ 
0092:  GOTO   09D
0093:  MOVF   30,F
0094:  BTFSS  03.2
0095:  GOTO   09D
0096:  MOVF   31,F
0097:  BTFSS  03.2
0098:  GOTO   09D
....................       output_low(PWM_PIN); 
0099:  BSF    03.5
009A:  BCF    06.1
009B:  BCF    03.5
009C:  BCF    06.1
....................    } 
.................... } 
....................  
009D:  BCF    0C.0
009E:  BCF    0A.3
009F:  BCF    0A.4
00A0:  GOTO   031
.................... #INT_EXT 
.................... void ext_isr() 
.................... { 
....................    pulsos++; 
00A1:  INCF   2E,F
00A2:  BTFSC  03.2
00A3:  INCF   2F,F
00A4:  BCF    0B.1
00A5:  BCF    0A.3
00A6:  BCF    0A.4
00A7:  GOTO   031
.................... } 
....................  
.................... void main(){ 
*
0800:  MOVF   03,W
0801:  ANDLW  1F
0802:  MOVWF  03
0803:  MOVLW  FF
0804:  MOVWF  2B
0805:  BCF    2D.0
0806:  CLRF   2F
0807:  CLRF   2E
0808:  CLRF   31
0809:  CLRF   30
080A:  CLRF   33
080B:  CLRF   32
080C:  BCF    2D.1
080D:  BSF    03.5
080E:  BSF    1F.0
080F:  BSF    1F.1
0810:  BSF    1F.2
0811:  BCF    1F.3
0812:  MOVLW  07
0813:  MOVWF  1C
0814:  BCF    03.7
....................    // Inicializar pines 
....................    lcd_init(); 
*
0817:  BCF    0A.3
0818:  GOTO   19D
0819:  BSF    0A.3
....................    kbd_init(); 
081A:  BCF    0A.3
081B:  GOTO   1E3
081C:  BSF    0A.3
....................  
....................    setup_timer_1(T1_INTERNAL | T1_DIV_BY_8); 
081D:  MOVLW  B5
081E:  MOVWF  10
....................    enable_interrupts(INT_TIMER1); 
081F:  BSF    03.5
0820:  BSF    0C.0
....................    enable_interrupts(INT_EXT); 
0821:  BCF    03.5
0822:  BSF    0B.4
....................    enable_interrupts(GLOBAL); 
0823:  MOVLW  C0
0824:  IORWF  0B,F
....................     
....................    set_timer1(carga); 
0825:  CLRF   0E
0826:  CLRF   0F
0827:  MOVLW  3D
0828:  MOVWF  0E
....................  
....................  
....................    int16 porcentaje; 
....................    output_low(PWM_PIN); 
0829:  BSF    03.5
082A:  BCF    06.1
082B:  BCF    03.5
082C:  BCF    06.1
....................    output_low(Motor); 
082D:  BSF    03.5
082E:  BCF    06.2
082F:  BCF    03.5
0830:  BCF    06.2
....................     
....................    while (TRUE){ 
....................       printf(lcd_putc,"\fVelocidad:"); // Leer velocidad deseada desde el teclado 
0831:  MOVLW  A8
0832:  BSF    03.6
0833:  MOVWF  0D
0834:  MOVLW  00
0835:  MOVWF  0F
0836:  BCF    0A.3
0837:  BCF    03.6
0838:  CALL   23C
0839:  BSF    0A.3
....................       velocidad_deseada = get_num_lcd(1,2); 
083A:  MOVLW  01
083B:  MOVWF  3A
083C:  MOVLW  02
083D:  MOVWF  3B
083E:  BCF    0A.3
083F:  GOTO   35A
0840:  BSF    0A.3
0841:  MOVF   79,W
0842:  MOVWF  31
0843:  MOVF   78,W
0844:  MOVWF  30
....................       porcentaje = ((float)velocidad_deseada * 100.0)/6600.0; 
0845:  MOVF   31,W
0846:  MOVWF  3B
0847:  MOVF   30,W
0848:  MOVWF  3A
0849:  BCF    0A.3
084A:  CALL   46B
084B:  BSF    0A.3
084C:  MOVF   7A,W
084D:  MOVWF  3D
084E:  MOVF   79,W
084F:  MOVWF  3C
0850:  MOVF   78,W
0851:  MOVWF  3B
0852:  MOVF   77,W
0853:  MOVWF  3A
0854:  MOVF   3D,W
0855:  MOVWF  41
0856:  MOVF   3C,W
0857:  MOVWF  40
0858:  MOVF   3B,W
0859:  MOVWF  3F
085A:  MOVF   3A,W
085B:  MOVWF  3E
085C:  CLRF   45
085D:  CLRF   44
085E:  MOVLW  48
085F:  MOVWF  43
0860:  MOVLW  85
0861:  MOVWF  42
0862:  BCF    0A.3
0863:  CALL   488
0864:  BSF    0A.3
0865:  MOVF   7A,W
0866:  MOVWF  3D
0867:  MOVF   79,W
0868:  MOVWF  3C
0869:  MOVF   78,W
086A:  MOVWF  3B
086B:  MOVF   77,W
086C:  MOVWF  3A
086D:  MOVF   3D,W
086E:  MOVWF  41
086F:  MOVF   3C,W
0870:  MOVWF  40
0871:  MOVF   3B,W
0872:  MOVWF  3F
0873:  MOVF   3A,W
0874:  MOVWF  3E
0875:  CLRF   45
0876:  MOVLW  40
0877:  MOVWF  44
0878:  MOVLW  4E
0879:  MOVWF  43
087A:  MOVLW  8B
087B:  MOVWF  42
087C:  BCF    0A.3
087D:  CALL   4FD
087E:  BSF    0A.3
087F:  MOVF   7A,W
0880:  MOVWF  3D
0881:  MOVF   79,W
0882:  MOVWF  3C
0883:  MOVF   78,W
0884:  MOVWF  3B
0885:  MOVF   77,W
0886:  MOVWF  3A
0887:  BCF    0A.3
0888:  CALL   5C7
0889:  BSF    0A.3
088A:  MOVF   79,W
088B:  MOVWF  39
088C:  MOVF   78,W
088D:  MOVWF  38
....................        
....................       if(velocidad_deseada<=6600 && velocidad_deseada>=0){ 
088E:  MOVF   31,W
088F:  SUBLW  19
0890:  BTFSS  03.0
0891:  GOTO   15B
0892:  BTFSS  03.2
0893:  GOTO   098
0894:  MOVF   30,W
0895:  SUBLW  C8
0896:  BTFSS  03.0
0897:  GOTO   15B
....................          while(TRUE){ 
....................             carga_bajo = (int16)((65536.0 * porcentaje / 100.0)); // Calcular el tiempo en bajo 
0898:  MOVF   39,W
0899:  MOVWF  3B
089A:  MOVF   38,W
089B:  MOVWF  3A
089C:  BCF    0A.3
089D:  CALL   46B
089E:  BSF    0A.3
089F:  CLRF   41
08A0:  CLRF   40
08A1:  CLRF   3F
08A2:  MOVLW  8F
08A3:  MOVWF  3E
08A4:  MOVF   7A,W
08A5:  MOVWF  45
08A6:  MOVF   79,W
08A7:  MOVWF  44
08A8:  MOVF   78,W
08A9:  MOVWF  43
08AA:  MOVF   77,W
08AB:  MOVWF  42
08AC:  BCF    0A.3
08AD:  CALL   488
08AE:  BSF    0A.3
08AF:  MOVF   7A,W
08B0:  MOVWF  3D
08B1:  MOVF   79,W
08B2:  MOVWF  3C
08B3:  MOVF   78,W
08B4:  MOVWF  3B
08B5:  MOVF   77,W
08B6:  MOVWF  3A
08B7:  MOVF   3D,W
08B8:  MOVWF  41
08B9:  MOVF   3C,W
08BA:  MOVWF  40
08BB:  MOVF   3B,W
08BC:  MOVWF  3F
08BD:  MOVF   3A,W
08BE:  MOVWF  3E
08BF:  CLRF   45
08C0:  CLRF   44
08C1:  MOVLW  48
08C2:  MOVWF  43
08C3:  MOVLW  85
08C4:  MOVWF  42
08C5:  BCF    0A.3
08C6:  CALL   4FD
08C7:  BSF    0A.3
08C8:  MOVF   7A,W
08C9:  MOVWF  3D
08CA:  MOVF   79,W
08CB:  MOVWF  3C
08CC:  MOVF   78,W
08CD:  MOVWF  3B
08CE:  MOVF   77,W
08CF:  MOVWF  3A
08D0:  BCF    0A.3
08D1:  CALL   5C7
08D2:  BSF    0A.3
08D3:  MOVF   79,W
08D4:  MOVWF  35
08D5:  MOVF   78,W
08D6:  MOVWF  34
....................             carga_alto = 65536 - carga_bajo; // Calcular el timepo en alto 
08D7:  MOVF   34,W
08D8:  SUBLW  00
08D9:  MOVWF  36
08DA:  CLRF   37
08DB:  MOVF   35,W
08DC:  BTFSS  03.0
08DD:  INCFSZ 35,W
08DE:  SUBWF  37,F
....................              
....................             pulsos = 0; // Reiniciar el contador 
08DF:  CLRF   2F
08E0:  CLRF   2E
....................             delay_ms(5000); // Esperar 5 segundos para medir la velocidad actual 
08E1:  MOVLW  14
08E2:  MOVWF  3A
08E3:  MOVLW  FA
08E4:  MOVWF  4A
08E5:  BCF    0A.3
08E6:  CALL   0CA
08E7:  BSF    0A.3
08E8:  DECFSZ 3A,F
08E9:  GOTO   0E3
....................             velocidad_actual = 60 * pulsos / 12; // Velocidad en RPM (12 dientes por vuelta) 
08EA:  CLRF   3B
08EB:  MOVLW  3C
08EC:  MOVWF  3A
08ED:  MOVF   2F,W
08EE:  MOVWF  3D
08EF:  MOVF   2E,W
08F0:  MOVWF  3C
08F1:  BCF    0A.3
08F2:  GOTO   5E6
08F3:  BSF    0A.3
08F4:  MOVF   79,W
08F5:  MOVWF  3B
08F6:  MOVF   78,W
08F7:  MOVWF  3A
08F8:  MOVF   3B,W
08F9:  MOVWF  3D
08FA:  MOVF   3A,W
08FB:  MOVWF  3C
08FC:  CLRF   3F
08FD:  MOVLW  0C
08FE:  MOVWF  3E
08FF:  BCF    0A.3
0900:  GOTO   5FD
0901:  BSF    0A.3
0902:  MOVF   79,W
0903:  MOVWF  33
0904:  MOVF   78,W
0905:  MOVWF  32
....................              
....................  
....................             lcd_gotoxy(1,1); 
0906:  MOVLW  01
0907:  MOVWF  4A
0908:  MOVWF  4B
0909:  BCF    0A.3
090A:  CALL   1FE
090B:  BSF    0A.3
....................             printf(lcd_putc, "\fRPM OBJ ERR \n%4lu %4lu %4lu", velocidad_actual,velocidad_deseada,porcentaje); 
090C:  MOVLW  AE
090D:  BSF    03.6
090E:  MOVWF  0D
090F:  MOVLW  00
0910:  MOVWF  0F
0911:  BCF    03.0
0912:  MOVLW  0E
0913:  BCF    03.6
0914:  MOVWF  3A
0915:  BCF    0A.3
0916:  GOTO   624
0917:  BSF    0A.3
0918:  MOVLW  01
0919:  MOVWF  04
091A:  MOVF   33,W
091B:  MOVWF  3B
091C:  MOVF   32,W
091D:  MOVWF  3A
091E:  BCF    0A.3
091F:  CALL   67D
0920:  BSF    0A.3
0921:  MOVLW  20
0922:  MOVWF  49
0923:  BCF    0A.3
0924:  CALL   210
0925:  BSF    0A.3
0926:  MOVLW  01
0927:  MOVWF  04
0928:  MOVF   31,W
0929:  MOVWF  3B
092A:  MOVF   30,W
092B:  MOVWF  3A
092C:  BCF    0A.3
092D:  CALL   67D
092E:  BSF    0A.3
092F:  MOVLW  20
0930:  MOVWF  49
0931:  BCF    0A.3
0932:  CALL   210
0933:  BSF    0A.3
0934:  MOVLW  01
0935:  MOVWF  04
0936:  MOVF   39,W
0937:  MOVWF  3B
0938:  MOVF   38,W
0939:  MOVWF  3A
093A:  BCF    0A.3
093B:  CALL   67D
093C:  BSF    0A.3
....................             if(velocidad_actual<velocidad_deseada){ 
093D:  MOVF   33,W
093E:  SUBWF  31,W
093F:  BTFSS  03.0
0940:  GOTO   14B
0941:  BTFSS  03.2
0942:  GOTO   147
0943:  MOVF   30,W
0944:  SUBWF  32,W
0945:  BTFSC  03.0
0946:  GOTO   14B
....................                porcentaje++; 
0947:  INCF   38,F
0948:  BTFSC  03.2
0949:  INCF   39,F
....................             } 
094A:  GOTO   159
....................             else if(velocidad_actual>velocidad_deseada){ 
094B:  MOVF   31,W
094C:  SUBWF  33,W
094D:  BTFSS  03.0
094E:  GOTO   159
094F:  BTFSS  03.2
0950:  GOTO   155
0951:  MOVF   32,W
0952:  SUBWF  30,W
0953:  BTFSC  03.0
0954:  GOTO   159
....................                porcentaje--; 
0955:  MOVF   38,W
0956:  BTFSC  03.2
0957:  DECF   39,F
0958:  DECF   38,F
....................             } 
0959:  GOTO   098
....................          } 
....................       } 
095A:  GOTO   17A
....................       else if(velocidad_deseada>6600){ 
095B:  MOVF   31,W
095C:  SUBLW  18
095D:  BTFSC  03.0
095E:  GOTO   17A
095F:  XORLW  FF
0960:  BTFSS  03.2
0961:  GOTO   166
0962:  MOVF   30,W
0963:  SUBLW  C8
0964:  BTFSC  03.0
0965:  GOTO   17A
....................          printf(lcd_putc,"\fSolo llego a\n6600 rpm :("); 
0966:  MOVLW  BD
0967:  BSF    03.6
0968:  MOVWF  0D
0969:  MOVLW  00
096A:  MOVWF  0F
096B:  BCF    0A.3
096C:  BCF    03.6
096D:  CALL   23C
096E:  BSF    0A.3
....................          velocidad_deseada = 0; 
096F:  CLRF   31
0970:  CLRF   30
....................          delay_ms(2000); 
0971:  MOVLW  08
0972:  MOVWF  3A
0973:  MOVLW  FA
0974:  MOVWF  4A
0975:  BCF    0A.3
0976:  CALL   0CA
0977:  BSF    0A.3
0978:  DECFSZ 3A,F
0979:  GOTO   173
....................       } 
097A:  GOTO   031
....................    } 
.................... } 
097B:  SLEEP

Configuration Fuses:
   Word  1: 3F32   HS NOWDT PUT NOBROWNOUT NOLVP NOCPD NOWRT NODEBUG NOPROTECT
